; ModuleID = '47/5161.c'
source_filename = "47/5161.c"
target datalayout = "e-m:e-p270:32:32-p271:32:32-p272:64:64-i64:64-f80:128-n8:16:32:64-S128"
target triple = "x86_64-pc-linux-gnu"

@.str = private unnamed_addr constant [3 x i8] c"%d\00", align 1
@.str.1 = private unnamed_addr constant [4 x i8] c"%d \00", align 1

; Function Attrs: noinline nounwind uwtable
define dso_local i32 @main() #0 {
  %1 = alloca i32, align 4
  %2 = alloca i32, align 4
  %3 = alloca [98 x i32], align 16
  %4 = alloca i32, align 4
  %5 = alloca i32, align 4
  %6 = alloca i32, align 4
  %7 = alloca i32, align 4
  store i32 0, i32* %1, align 4
  %8 = call i32 (i8*, ...) @__isoc99_scanf(i8* getelementptr inbounds ([3 x i8], [3 x i8]* @.str, i64 0, i64 0), i32* %2)
  store i32 0, i32* %4, align 4
  br label %9

9:                                                ; preds = %13, %0
  %10 = load i32, i32* %4, align 4
  %11 = load i32, i32* %2, align 4
  %12 = icmp slt i32 %10, %11
  br i1 %12, label %13, label %20

13:                                               ; preds = %9
  %14 = load i32, i32* %4, align 4
  %15 = sext i32 %14 to i64
  %16 = getelementptr inbounds [98 x i32], [98 x i32]* %3, i64 0, i64 %15
  %17 = call i32 (i8*, ...) @__isoc99_scanf(i8* getelementptr inbounds ([3 x i8], [3 x i8]* @.str, i64 0, i64 0), i32* %16)
  %18 = load i32, i32* %4, align 4
  %19 = add nsw i32 %18, 1
  store i32 %19, i32* %4, align 4
  br label %9

20:                                               ; preds = %9
  store i32 0, i32* %6, align 4
  br label %21

21:                                               ; preds = %27, %20
  %22 = load i32, i32* %6, align 4
  %23 = load i32, i32* %2, align 4
  %24 = sdiv i32 %23, 2
  %25 = sub nsw i32 %24, 1
  %26 = icmp sle i32 %22, %25
  br i1 %26, label %27, label %51

27:                                               ; preds = %21
  %28 = load i32, i32* %2, align 4
  %29 = load i32, i32* %6, align 4
  %30 = sub nsw i32 %28, %29
  %31 = sub nsw i32 %30, 1
  %32 = sext i32 %31 to i64
  %33 = getelementptr inbounds [98 x i32], [98 x i32]* %3, i64 0, i64 %32
  %34 = load i32, i32* %33, align 4
  store i32 %34, i32* %5, align 4
  %35 = load i32, i32* %6, align 4
  %36 = sext i32 %35 to i64
  %37 = getelementptr inbounds [98 x i32], [98 x i32]* %3, i64 0, i64 %36
  %38 = load i32, i32* %37, align 4
  %39 = load i32, i32* %2, align 4
  %40 = load i32, i32* %6, align 4
  %41 = sub nsw i32 %39, %40
  %42 = sub nsw i32 %41, 1
  %43 = sext i32 %42 to i64
  %44 = getelementptr inbounds [98 x i32], [98 x i32]* %3, i64 0, i64 %43
  store i32 %38, i32* %44, align 4
  %45 = load i32, i32* %5, align 4
  %46 = load i32, i32* %6, align 4
  %47 = sext i32 %46 to i64
  %48 = getelementptr inbounds [98 x i32], [98 x i32]* %3, i64 0, i64 %47
  store i32 %45, i32* %48, align 4
  %49 = load i32, i32* %6, align 4
  %50 = add nsw i32 %49, 1
  store i32 %50, i32* %6, align 4
  br label %21

51:                                               ; preds = %21
  store i32 0, i32* %7, align 4
  br label %52

52:                                               ; preds = %57, %51
  %53 = load i32, i32* %7, align 4
  %54 = load i32, i32* %2, align 4
  %55 = sub nsw i32 %54, 1
  %56 = icmp slt i32 %53, %55
  br i1 %56, label %57, label %65

57:                                               ; preds = %52
  %58 = load i32, i32* %7, align 4
  %59 = sext i32 %58 to i64
  %60 = getelementptr inbounds [98 x i32], [98 x i32]* %3, i64 0, i64 %59
  %61 = load i32, i32* %60, align 4
  %62 = call i32 (i8*, ...) @printf(i8* getelementptr inbounds ([4 x i8], [4 x i8]* @.str.1, i64 0, i64 0), i32 %61)
  %63 = load i32, i32* %7, align 4
  %64 = add nsw i32 %63, 1
  store i32 %64, i32* %7, align 4
  br label %52

65:                                               ; preds = %52
  %66 = load i32, i32* %2, align 4
  %67 = sub nsw i32 %66, 1
  %68 = sext i32 %67 to i64
  %69 = getelementptr inbounds [98 x i32], [98 x i32]* %3, i64 0, i64 %68
  %70 = load i32, i32* %69, align 4
  %71 = call i32 (i8*, ...) @printf(i8* getelementptr inbounds ([3 x i8], [3 x i8]* @.str, i64 0, i64 0), i32 %70)
  ret i32 0
}

declare dso_local i32 @__isoc99_scanf(i8*, ...) #1

declare dso_local i32 @printf(i8*, ...) #1


!llvm.module.flags = !{!0}
!llvm.ident = !{!1}

!0 = !{i32 1, !"wchar_size", i32 4}
!1 = !{!"clang version 10.0.0-4ubuntu1 "}
